; Function Attrs: mustprogress uwtable
define noundef i32 @_ZN12ByteViewText9hexPixelsEv(ptr noundef nonnull align 8 dereferenceable(328) %0) local_unnamed_addr #0 align 2 personality ptr @__gxx_personality_v0 {
  %2 = alloca %class.QFontMetrics, align 8
  %3 = alloca %class.QString, align 8
  %4 = getelementptr inbounds i8, ptr %0, i64 193
  %5 = load i8, ptr %4, align 1
  %6 = and i8 %5, 1
  %.not = icmp eq i8 %6, 0
  br i1 %.not, label %_ZN7QStringD2Ev.exit, label %7

7:                                                ; preds = %1
  %8 = tail call noundef i32 @_ZN11DataPrinter8hexCharsEv()
  %9 = add i32 %8, 2
  %10 = sext i32 %9 to i64
  call void @_ZN7QStringC1Ex5QChar(ptr noundef nonnull align 8 dereferenceable(24) %3, i64 noundef %10, i16 48)
  call void @llvm.lifetime.start.p0(i64 8, ptr nonnull %2)
  %11 = invoke noundef ptr @_ZNK19QAbstractScrollArea8viewportEv(ptr noundef nonnull align 8 dereferenceable(40) %0)
          to label %.noexc unwind label %23

.noexc:                                           ; preds = %7
  %12 = getelementptr inbounds i8, ptr %11, i64 32
  %13 = load ptr, ptr %12, align 8, !noalias !61
  %14 = getelementptr inbounds i8, ptr %13, i64 56
  invoke void @_ZN12QFontMetricsC1ERK5QFont(ptr noundef nonnull align 8 dereferenceable(8) %2, ptr noundef nonnull align 8 dereferenceable(12) %14)
          to label %.noexc3 unwind label %23

.noexc3:                                          ; preds = %.noexc
  %15 = invoke noundef i32 @_ZNK12QFontMetrics17horizontalAdvanceERK7QStringi(ptr noundef nonnull align 8 dereferenceable(8) %2, ptr noundef nonnull align 8 dereferenceable(24) %3, i32 noundef -1)
          to label %18 unwind label %16

16:                                               ; preds = %.noexc3
  %17 = landingpad { ptr, i32 }
          cleanup
  call void @_ZN12QFontMetricsD1Ev(ptr noundef nonnull align 8 dereferenceable(8) %2) #22
  br label %.body

18:                                               ; preds = %.noexc3
  call void @_ZN12QFontMetricsD1Ev(ptr noundef nonnull align 8 dereferenceable(8) %2) #22
  call void @llvm.lifetime.end.p0(i64 8, ptr nonnull %2)
  %19 = load ptr, ptr %3, align 8
  %.not.i.i.i = icmp eq ptr %19, null
  br i1 %.not.i.i.i, label %_ZN7QStringD2Ev.exit, label %_ZN17QArrayDataPointerIDsE5derefEv.exit.i.i

_ZN17QArrayDataPointerIDsE5derefEv.exit.i.i:      ; preds = %18
  %20 = atomicrmw sub ptr %19, i32 1 seq_cst, align 4
  %.not.i.i = icmp eq i32 %20, 1
  br i1 %.not.i.i, label %21, label %_ZN7QStringD2Ev.exit

21:                                               ; preds = %_ZN17QArrayDataPointerIDsE5derefEv.exit.i.i
  %22 = load ptr, ptr %3, align 8
  call void @_ZN10QArrayData10deallocateEPS_xx(ptr noundef %22, i64 noundef 2, i64 noundef 8) #22
  br label %_ZN7QStringD2Ev.exit

23:                                               ; preds = %.noexc, %7
  %24 = landingpad { ptr, i32 }
          cleanup
  br label %.body

.body:                                            ; preds = %16, %23
  %eh.lpad-body = phi { ptr, i32 } [ %24, %23 ], [ %17, %16 ]
  %25 = load ptr, ptr %3, align 8
  %.not.i.i.i4 = icmp eq ptr %25, null
  br i1 %.not.i.i.i4, label %_ZN7QStringD2Ev.exit7, label %_ZN17QArrayDataPointerIDsE5derefEv.exit.i.i5

_ZN17QArrayDataPointerIDsE5derefEv.exit.i.i5:     ; preds = %.body
  %26 = atomicrmw sub ptr %25, i32 1 seq_cst, align 4
  %.not.i.i6 = icmp eq i32 %26, 1
  br i1 %.not.i.i6, label %27, label %_ZN7QStringD2Ev.exit7

27:                                               ; preds = %_ZN17QArrayDataPointerIDsE5derefEv.exit.i.i5
  %28 = load ptr, ptr %3, align 8
  call void @_ZN10QArrayData10deallocateEPS_xx(ptr noundef %28, i64 noundef 2, i64 noundef 8) #22
  br label %_ZN7QStringD2Ev.exit7

_ZN7QStringD2Ev.exit7:                            ; preds = %.body, %_ZN17QArrayDataPointerIDsE5derefEv.exit.i.i5, %27
  resume { ptr, i32 } %eh.lpad-body

_ZN7QStringD2Ev.exit:                             ; preds = %21, %_ZN17QArrayDataPointerIDsE5derefEv.exit.i.i, %18, %1
  %.0 = phi i32 [ 0, %1 ], [ %15, %18 ], [ %15, %_ZN17QArrayDataPointerIDsE5derefEv.exit.i.i ], [ %15, %21 ]
  ret i32 %.0
}